; Function Attrs: mustprogress uwtable
define void @_ZN5Yosys4Pass12cmd_log_argsERKSt6vectorINSt7__cxx1112basic_stringIcSt11char_traitsIcESaIcEEESaIS7_EE(ptr noundef nonnull readnone align 8 captures(none) dereferenceable(104) %0, ptr noundef nonnull readonly align 8 captures(none) dereferenceable(24) %1) local_unnamed_addr #4 align 2 {
  %3 = getelementptr inbounds nuw i8, ptr %1, i64 8
  %4 = load ptr, ptr %3, align 8, !tbaa !18
  %5 = load ptr, ptr %1, align 8, !tbaa !15
  %6 = ptrtoint ptr %4 to i64
  %7 = ptrtoint ptr %5 to i64
  %8 = sub i64 %6, %7
  %9 = icmp ult i64 %8, 33
  br i1 %9, label %24, label %10

10:                                               ; preds = %2
  tail call void (ptr, ...) @_ZN5Yosys3logEPKcz(ptr noundef nonnull @.str.7)
  %11 = load ptr, ptr %3, align 8, !tbaa !18
  %12 = load ptr, ptr %1, align 8, !tbaa !15
  %.not = icmp eq ptr %11, %12
  br i1 %.not, label %._crit_edge, label %.lr.ph

._crit_edge:                                      ; preds = %.lr.ph, %10
  tail call void (ptr, ...) @_ZN5Yosys3logEPKcz(ptr noundef nonnull @.str.5)
  br label %24

.lr.ph:                                           ; preds = %10, %.lr.ph
  %13 = phi ptr [ %18, %.lr.ph ], [ %12, %10 ]
  %.05 = phi i64 [ %16, %.lr.ph ], [ 0, %10 ]
  %14 = getelementptr inbounds nuw %"class.std::__cxx11::basic_string", ptr %13, i64 %.05
  %15 = load ptr, ptr %14, align 8, !tbaa !19
  tail call void (ptr, ...) @_ZN5Yosys3logEPKcz(ptr noundef nonnull @.str.8, ptr noundef %15)
  %16 = add nuw i64 %.05, 1
  %17 = load ptr, ptr %3, align 8, !tbaa !18
  %18 = load ptr, ptr %1, align 8, !tbaa !15
  %19 = ptrtoint ptr %17 to i64
  %20 = ptrtoint ptr %18 to i64
  %21 = sub i64 %19, %20
  %22 = ashr exact i64 %21, 5
  %23 = icmp ult i64 %16, %22
  br i1 %23, label %.lr.ph, label %._crit_edge, !llvm.loop !60

24:                                               ; preds = %2, %._crit_edge
  ret void
}